ccopy_reg
_reconstructor
p0
(cgoogle.oauth2.credentials
Credentials
p1
c__builtin__
object
p2
Ntp3
Rp4
(dp5
S'_quota_project_id'
p6
NsS'_token_uri'
p7
Vhttps://oauth2.googleapis.com/token
p8
sS'_client_secret'
p9
Vwd8ALppxNIyD99TpIg4PSFrO
p10
sS'_default_scopes'
p11
NsS'_id_token'
p12
NsS'token'
p13
Vya29.a0AfH6SMArsWntD7_bm0a13TpKZKQzOTsVXsD3hIfImlKnxuacCsGid3nUZTk7CqsNfHNdUFkpLv3Eo0fG5qoZUN_MAK7pL5RCdyrM2-qCdr6_ZKzcTR2NtmHAzms82vgw2ZY1yArOjJzpBqq8b4NLo7i50QmWTA
p14
sS'_refresh_token'
p15
V1//09wU8ZcfDeR9yCgYIARAAGAkSNwF-L9IrkjgZocF10TNRj2s5dOk0exeNBKyGn_AlxLKYs8q7nD8VgVCnw0rCSu78U_bKgEU3ZvI
p16
sS'_scopes'
p17
(lp18
S'https://www.googleapis.com/auth/drive'
p19
asS'_client_id'
p20
V1004991747928-h20du7v5qd5ct2968sl68km4m65v7hkq.apps.googleusercontent.com
p21
sS'expiry'
p22
cdatetime
datetime
p23
(S'\x07\xe5\x06\x16\x0e\x1f\x19\x03\xbb\xfd'
p24
tp25
Rp26
sS'_rapt_token'
p27
Nsb.